target datalayout = "e-m:e-p270:32:32-p271:32:32-p272:64:64-i64:64-i128:128-f80:128-n8:16:32:64-S128"
target triple = "x86_64-pc-linux-gnu"

; Function Attrs: nounwind uwtable
define dso_local i32 @hash_size(i32 noundef %0) #0 {
  %2 = alloca i32, align 4
  %3 = alloca i32, align 4
  store i32 %0, ptr %3, align 4, !tbaa !20
  %4 = load i32, ptr %3, align 4, !tbaa !20
  %5 = icmp ne i32 %4, 0
  br i1 %5, label %7, label %6

6:                                                ; preds = %1
  store i32 20, ptr %2, align 4
  br label %12

7:                                                ; preds = %1
  %8 = load i32, ptr %3, align 4, !tbaa !20
  switch i32 %8, label %11 [
    i32 89, label %9
    i32 247, label %10
  ]

9:                                                ; preds = %7
  store i32 20, ptr %2, align 4
  br label %12

10:                                               ; preds = %7
  store i32 32, ptr %2, align 4
  br label %12

11:                                               ; preds = %7
  call void @abort() #15
  unreachable

12:                                               ; preds = %10, %9, %6
  %13 = load i32, ptr %2, align 4
  ret i32 %13
}