; Function Attrs: nofree nounwind uwtable
define dso_local range(i32 20, 33) i32 @hash_size(i32 noundef %0) local_unnamed_addr #16 {
  switch i32 %0, label %3 [
    i32 0, label %4
    i32 89, label %4
    i32 247, label %2
  ]

2:                                                ; preds = %1
  br label %4

3:                                                ; preds = %1
  tail call void @abort() #24
  unreachable

4:                                                ; preds = %1, %1, %2
  %.0 = phi i32 [ 32, %2 ], [ 20, %1 ], [ 20, %1 ]
  ret i32 %.0
}